target datalayout = "e-m:e-p270:32:32-p271:32:32-p272:64:64-i64:64-i128:128-f80:128-n8:16:32:64-S128"
target triple = "x86_64-pc-linux-gnu"

%"class.std::vector.3" = type { %"struct.std::_Vector_base.4" }
%"struct.std::_Vector_base.4" = type { %"struct.std::_Vector_base<Variable *, std::allocator<Variable *>>::_Vector_impl" }
%"struct.std::_Vector_base<Variable *, std::allocator<Variable *>>::_Vector_impl" = type { %"struct.std::_Vector_base<Variable *, std::allocator<Variable *>>::_Vector_impl_data" }
%"struct.std::_Vector_base<Variable *, std::allocator<Variable *>>::_Vector_impl_data" = type { ptr, ptr, ptr }
%"class.std::__cxx11::basic_string" = type { %"struct.std::__cxx11::basic_string<char>::_Alloc_hider", i64, %union.anon }
%"struct.std::__cxx11::basic_string<char>::_Alloc_hider" = type { ptr }
%union.anon = type { i64, [8 x i8] }
%class.Statement = type { ptr, i32, i32, ptr, ptr }
%"struct.std::_Rb_tree_header" = type { %"struct.std::_Rb_tree_node_base", i64 }
%"struct.std::_Rb_tree_node_base" = type { i32, ptr, ptr, ptr }
%class.Block = type { %class.Statement, %"class.std::vector.18", %"class.std::vector.18", %"class.std::vector.3", %"class.std::map", i8, i8, i8, %"class.std::vector.26", i8, i32 }
%"class.std::vector.18" = type { %"struct.std::_Vector_base.19" }
%"struct.std::_Vector_base.19" = type { %"struct.std::_Vector_base<Statement *, std::allocator<Statement *>>::_Vector_impl" }
%"struct.std::_Vector_base<Statement *, std::allocator<Statement *>>::_Vector_impl" = type { %"struct.std::_Vector_base<Statement *, std::allocator<Statement *>>::_Vector_impl_data" }
%"struct.std::_Vector_base<Statement *, std::allocator<Statement *>>::_Vector_impl_data" = type { ptr, ptr, ptr }
%"class.std::map" = type { %"class.std::_Rb_tree" }
%"class.std::_Rb_tree" = type { %"struct.std::_Rb_tree<std::__cxx11::basic_string<char>, std::pair<const std::__cxx11::basic_string<char>, eSimpleType>, std::_Select1st<std::pair<const std::__cxx11::basic_string<char>, eSimpleType>>, std::less<std::__cxx11::basic_string<char>>>::_Rb_tree_impl" }
%"struct.std::_Rb_tree<std::__cxx11::basic_string<char>, std::pair<const std::__cxx11::basic_string<char>, eSimpleType>, std::_Select1st<std::pair<const std::__cxx11::basic_string<char>, eSimpleType>>, std::less<std::__cxx11::basic_string<char>>>::_Rb_tree_impl" = type { %"struct.std::_Rb_tree_key_compare", %"struct.std::_Rb_tree_header" }
%"struct.std::_Rb_tree_key_compare" = type { %"struct.std::less" }
%"struct.std::less" = type { i8 }
%"class.std::vector.26" = type { %"struct.std::_Vector_base.27" }
%"struct.std::_Vector_base.27" = type { %"struct.std::_Vector_base<const Statement *, std::allocator<const Statement *>>::_Vector_impl" }
%"struct.std::_Vector_base<const Statement *, std::allocator<const Statement *>>::_Vector_impl" = type { %"struct.std::_Vector_base<const Statement *, std::allocator<const Statement *>>::_Vector_impl_data" }
%"struct.std::_Vector_base<const Statement *, std::allocator<const Statement *>>::_Vector_impl_data" = type { ptr, ptr, ptr }
%"class.std::__cxx11::basic_ostringstream" = type { %"class.std::basic_ostream.base", %"class.std::__cxx11::basic_stringbuf", %"class.std::basic_ios" }
%"class.std::basic_ostream.base" = type { ptr }
%"class.std::__cxx11::basic_stringbuf" = type { %"class.std::basic_streambuf", i32, %"class.std::__cxx11::basic_string" }
%"class.std::basic_streambuf" = type { ptr, ptr, ptr, ptr, ptr, ptr, ptr, %"class.std::locale" }
%"class.std::locale" = type { ptr }
%"class.std::basic_ios" = type { %"class.std::ios_base", ptr, i8, i8, ptr, ptr, ptr, ptr }
%"class.std::ios_base" = type { ptr, i64, i64, i32, i32, i32, ptr, %"struct.std::ios_base::_Words", [8 x %"struct.std::ios_base::_Words"], i32, ptr, %"class.std::locale" }
%"struct.std::ios_base::_Words" = type { ptr, i64 }

@.str.3 = private unnamed_addr constant [3 x i8] c"{ \00", align 1
@.str.4 = private unnamed_addr constant [11 x i8] c"block id: \00", align 1
@.str.5 = private unnamed_addr constant [9 x i8] c"DEPTH++;\00", align 1
@.str.6 = private unnamed_addr constant [9 x i8] c"DEPTH--;\00", align 1
@.str.7 = private unnamed_addr constant [2 x i8] c"}\00", align 1

; Function Attrs: mustprogress nounwind uwtable
define linkonce_odr dso_local noundef nonnull align 8 dereferenceable(8) ptr @_ZNKSt6vectorIP9StatementSaIS1_EEixEm(ptr noundef nonnull align 8 dereferenceable(24) %0, i64 noundef %1) #5 comdat align 2 {
  %3 = alloca ptr, align 8
  %4 = alloca i64, align 8
  store ptr %0, ptr %3, align 8
  store i64 %1, ptr %4, align 8
  %5 = load ptr, ptr %3, align 8
  %6 = getelementptr inbounds %"struct.std::_Vector_base.19", ptr %5, i32 0, i32 0
  %7 = getelementptr inbounds %"struct.std::_Vector_base<Statement *, std::allocator<Statement *>>::_Vector_impl_data", ptr %6, i32 0, i32 0
  %8 = load ptr, ptr %7, align 8
  %9 = load i64, ptr %4, align 8
  %10 = getelementptr inbounds ptr, ptr %8, i64 %9
  ret ptr %10
}

; Function Attrs: mustprogress nounwind uwtable
define linkonce_odr dso_local noundef i64 @_ZNKSt6vectorIP9StatementSaIS1_EE4sizeEv(ptr noundef nonnull align 8 dereferenceable(24) %0) #5 comdat align 2 {
  %2 = alloca ptr, align 8
  store ptr %0, ptr %2, align 8
  %3 = load ptr, ptr %2, align 8
  %4 = getelementptr inbounds %"struct.std::_Vector_base.19", ptr %3, i32 0, i32 0
  %5 = getelementptr inbounds %"struct.std::_Vector_base<Statement *, std::allocator<Statement *>>::_Vector_impl_data", ptr %4, i32 0, i32 1
  %6 = load ptr, ptr %5, align 8
  %7 = getelementptr inbounds %"struct.std::_Vector_base.19", ptr %3, i32 0, i32 0
  %8 = getelementptr inbounds %"struct.std::_Vector_base<Statement *, std::allocator<Statement *>>::_Vector_impl_data", ptr %7, i32 0, i32 0
  %9 = load ptr, ptr %8, align 8
  %10 = ptrtoint ptr %6 to i64
  %11 = ptrtoint ptr %9 to i64
  %12 = sub i64 %10, %11
  %13 = sdiv exact i64 %12, 8
  ret i64 %13
}

; Function Attrs: mustprogress uwtable
define internal void @_ZL19OutputStatementListRKSt6vectorIP9StatementSaIS1_EERSoP7FactMgri(ptr noundef nonnull align 8 dereferenceable(24) %0, ptr noundef nonnull align 8 dereferenceable(8) %1, ptr noundef %2, i32 noundef %3) #4 {
  %5 = alloca ptr, align 8
  %6 = alloca ptr, align 8
  %7 = alloca ptr, align 8
  %8 = alloca i32, align 4
  %9 = alloca i64, align 8
  %10 = alloca ptr, align 8
  store ptr %0, ptr %5, align 8
  store ptr %1, ptr %6, align 8
  store ptr %2, ptr %7, align 8
  store i32 %3, ptr %8, align 4
  store i64 0, ptr %9, align 8
  br label %11

11:                                               ; preds = %37, %4
  %12 = load i64, ptr %9, align 8
  %13 = load ptr, ptr %5, align 8
  %14 = call noundef i64 @_ZNKSt6vectorIP9StatementSaIS1_EE4sizeEv(ptr noundef nonnull align 8 dereferenceable(24) %13) #3
  %15 = icmp ult i64 %12, %14
  br i1 %15, label %16, label %40

16:                                               ; preds = %11
  %17 = load ptr, ptr %5, align 8
  %18 = load i64, ptr %9, align 8
  %19 = call noundef nonnull align 8 dereferenceable(8) ptr @_ZNKSt6vectorIP9StatementSaIS1_EEixEm(ptr noundef nonnull align 8 dereferenceable(24) %17, i64 noundef %18) #3
  %20 = load ptr, ptr %19, align 8
  store ptr %20, ptr %10, align 8
  %21 = load ptr, ptr %10, align 8
  %22 = load ptr, ptr %6, align 8
  %23 = load ptr, ptr %7, align 8
  %24 = load i32, ptr %8, align 4
  %25 = call noundef i32 @_ZNK9Statement10pre_outputERSoP7FactMgri(ptr noundef nonnull align 8 dereferenceable(32) %21, ptr noundef nonnull align 8 dereferenceable(8) %22, ptr noundef %23, i32 noundef %24)
  %26 = load ptr, ptr %10, align 8
  %27 = load ptr, ptr %6, align 8
  %28 = load ptr, ptr %7, align 8
  %29 = load i32, ptr %8, align 4
  %30 = load ptr, ptr %26, align 8
  %31 = getelementptr inbounds ptr, ptr %30, i64 9
  %32 = load ptr, ptr %31, align 8
  call void %32(ptr noundef nonnull align 8 dereferenceable(32) %26, ptr noundef nonnull align 8 dereferenceable(8) %27, ptr noundef %28, i32 noundef %29)
  %33 = load ptr, ptr %10, align 8
  %34 = load ptr, ptr %6, align 8
  %35 = load ptr, ptr %7, align 8
  %36 = load i32, ptr %8, align 4
  call void @_ZNK9Statement11post_outputERSoP7FactMgri(ptr noundef nonnull align 8 dereferenceable(32) %33, ptr noundef nonnull align 8 dereferenceable(8) %34, ptr noundef %35, i32 noundef %36)
  br label %37

37:                                               ; preds = %16
  %38 = load i64, ptr %9, align 8
  %39 = add i64 %38, 1
  store i64 %39, ptr %9, align 8
  br label %11, !llvm.loop !16

40:                                               ; preds = %11
  ret void
}

; Function Attrs: mustprogress uwtable
define dso_local void @_ZNK5Block6OutputERSoP7FactMgri(ptr noundef nonnull align 8 dereferenceable(192) %0, ptr noundef nonnull align 8 dereferenceable(8) %1, ptr noundef %2, i32 noundef %3) unnamed_addr #4 align 2 personality ptr @__gxx_personality_v0 {
  %5 = alloca ptr, align 8
  %6 = alloca ptr, align 8
  %7 = alloca ptr, align 8
  %8 = alloca i32, align 4
  %9 = alloca %"class.std::__cxx11::basic_ostringstream", align 8
  %10 = alloca ptr, align 8
  %11 = alloca i32, align 4
  %12 = alloca %"class.std::__cxx11::basic_string", align 8
  store ptr %0, ptr %5, align 8
  store ptr %1, ptr %6, align 8
  store ptr %2, ptr %7, align 8
  store i32 %3, ptr %8, align 4
  %13 = load ptr, ptr %5, align 8
  %14 = load ptr, ptr %6, align 8
  %15 = load i32, ptr %8, align 4
  call void @_Z10output_tabRSoi(ptr noundef nonnull align 8 dereferenceable(8) %14, i32 noundef %15)
  %16 = load ptr, ptr %6, align 8
  %17 = call noundef nonnull align 8 dereferenceable(8) ptr @_ZStlsISt11char_traitsIcEERSt13basic_ostreamIcT_ES5_PKc(ptr noundef nonnull align 8 dereferenceable(8) %16, ptr noundef @.str.3)
  call void @_ZNSt7__cxx1119basic_ostringstreamIcSt11char_traitsIcESaIcEEC1Ev(ptr noundef nonnull align 8 dereferenceable(112) %9)
  %18 = invoke noundef nonnull align 8 dereferenceable(8) ptr @_ZStlsISt11char_traitsIcEERSt13basic_ostreamIcT_ES5_PKc(ptr noundef nonnull align 8 dereferenceable(8) %9, ptr noundef @.str.4)
          to label %19 unwind label %35

19:                                               ; preds = %4
  %20 = getelementptr inbounds %class.Statement, ptr %13, i32 0, i32 2
  %21 = load i32, ptr %20, align 4
  %22 = invoke noundef nonnull align 8 dereferenceable(8) ptr @_ZNSolsEi(ptr noundef nonnull align 8 dereferenceable(8) %18, i32 noundef %21)
          to label %23 unwind label %35

23:                                               ; preds = %19
  %24 = load ptr, ptr %6, align 8
  invoke void @_ZNKSt7__cxx1119basic_ostringstreamIcSt11char_traitsIcESaIcEE3strEv(ptr dead_on_unwind writable sret(%"class.std::__cxx11::basic_string") align 8 %12, ptr noundef nonnull align 8 dereferenceable(112) %9)
          to label %25 unwind label %35

25:                                               ; preds = %23
  invoke void @_Z19output_comment_lineRSoRKNSt7__cxx1112basic_stringIcSt11char_traitsIcESaIcEEE(ptr noundef nonnull align 8 dereferenceable(8) %24, ptr noundef nonnull align 8 dereferenceable(32) %12)
          to label %26 unwind label %39

26:                                               ; preds = %25
  call void @_ZNSt7__cxx1112basic_stringIcSt11char_traitsIcESaIcEED1Ev(ptr noundef nonnull align 8 dereferenceable(32) %12) #3
  %27 = invoke noundef zeroext i1 @_ZN9CGOptions13depth_protectEv()
          to label %28 unwind label %35

28:                                               ; preds = %26
  br i1 %27, label %29, label %43

29:                                               ; preds = %28
  %30 = load ptr, ptr %6, align 8
  %31 = invoke noundef nonnull align 8 dereferenceable(8) ptr @_ZStlsISt11char_traitsIcEERSt13basic_ostreamIcT_ES5_PKc(ptr noundef nonnull align 8 dereferenceable(8) %30, ptr noundef @.str.5)
          to label %32 unwind label %35

32:                                               ; preds = %29
  %33 = invoke noundef nonnull align 8 dereferenceable(8) ptr @_ZNSolsEPFRSoS_E(ptr noundef nonnull align 8 dereferenceable(8) %31, ptr noundef @_ZSt4endlIcSt11char_traitsIcEERSt13basic_ostreamIT_T0_ES6_)
          to label %34 unwind label %35

34:                                               ; preds = %32
  br label %43

35:                                               ; preds = %78, %75, %70, %67, %64, %61, %56, %52, %48, %43, %32, %29, %26, %23, %19, %4
  %36 = landingpad { ptr, i32 }
          cleanup
  %37 = extractvalue { ptr, i32 } %36, 0
  store ptr %37, ptr %10, align 8
  %38 = extractvalue { ptr, i32 } %36, 1
  store i32 %38, ptr %11, align 4
  br label %81

39:                                               ; preds = %25
  %40 = landingpad { ptr, i32 }
          cleanup
  %41 = extractvalue { ptr, i32 } %40, 0
  store ptr %41, ptr %10, align 8
  %42 = extractvalue { ptr, i32 } %40, 1
  store i32 %42, ptr %11, align 4
  call void @_ZNSt7__cxx1112basic_stringIcSt11char_traitsIcESaIcEED1Ev(ptr noundef nonnull align 8 dereferenceable(32) %12) #3
  br label %81

43:                                               ; preds = %34, %28
  %44 = load i32, ptr %8, align 4
  %45 = add nsw i32 %44, 1
  store i32 %45, ptr %8, align 4
  %46 = invoke noundef zeroext i1 @_ZN9CGOptions10math_notmpEv()
          to label %47 unwind label %35

47:                                               ; preds = %43
  br i1 %46, label %48, label %52

48:                                               ; preds = %47
  %49 = load ptr, ptr %6, align 8
  %50 = load i32, ptr %8, align 4
  invoke void @_ZNK5Block21OutputTmpVariableListERSoi(ptr noundef nonnull align 8 dereferenceable(192) %13, ptr noundef nonnull align 8 dereferenceable(8) %49, i32 noundef %50)
          to label %51 unwind label %35

51:                                               ; preds = %48
  br label %52

52:                                               ; preds = %51, %47
  %53 = getelementptr inbounds %class.Block, ptr %13, i32 0, i32 3
  %54 = load ptr, ptr %6, align 8
  %55 = load i32, ptr %8, align 4
  invoke void @_Z18OutputVariableListRKSt6vectorIP8VariableSaIS1_EERSoi(ptr noundef nonnull align 8 dereferenceable(24) %53, ptr noundef nonnull align 8 dereferenceable(8) %54, i32 noundef %55)
          to label %56 unwind label %35

56:                                               ; preds = %52
  %57 = getelementptr inbounds %class.Block, ptr %13, i32 0, i32 1
  %58 = load ptr, ptr %6, align 8
  %59 = load ptr, ptr %7, align 8
  %60 = load i32, ptr %8, align 4
  invoke void @_ZL19OutputStatementListRKSt6vectorIP9StatementSaIS1_EERSoP7FactMgri(ptr noundef nonnull align 8 dereferenceable(24) %57, ptr noundef nonnull align 8 dereferenceable(8) %58, ptr noundef %59, i32 noundef %60)
          to label %61 unwind label %35

61:                                               ; preds = %56
  %62 = invoke noundef zeroext i1 @_ZN9CGOptions13depth_protectEv()
          to label %63 unwind label %35

63:                                               ; preds = %61
  br i1 %62, label %64, label %70

64:                                               ; preds = %63
  %65 = load ptr, ptr %6, align 8
  %66 = invoke noundef nonnull align 8 dereferenceable(8) ptr @_ZStlsISt11char_traitsIcEERSt13basic_ostreamIcT_ES5_PKc(ptr noundef nonnull align 8 dereferenceable(8) %65, ptr noundef @.str.6)
          to label %67 unwind label %35

67:                                               ; preds = %64
  %68 = invoke noundef nonnull align 8 dereferenceable(8) ptr @_ZNSolsEPFRSoS_E(ptr noundef nonnull align 8 dereferenceable(8) %66, ptr noundef @_ZSt4endlIcSt11char_traitsIcEERSt13basic_ostreamIT_T0_ES6_)
          to label %69 unwind label %35

69:                                               ; preds = %67
  br label %70

70:                                               ; preds = %69, %63
  %71 = load i32, ptr %8, align 4
  %72 = add nsw i32 %71, -1
  store i32 %72, ptr %8, align 4
  %73 = load ptr, ptr %6, align 8
  %74 = load i32, ptr %8, align 4
  invoke void @_Z10output_tabRSoi(ptr noundef nonnull align 8 dereferenceable(8) %73, i32 noundef %74)
          to label %75 unwind label %35

75:                                               ; preds = %70
  %76 = load ptr, ptr %6, align 8
  %77 = invoke noundef nonnull align 8 dereferenceable(8) ptr @_ZStlsISt11char_traitsIcEERSt13basic_ostreamIcT_ES5_PKc(ptr noundef nonnull align 8 dereferenceable(8) %76, ptr noundef @.str.7)
          to label %78 unwind label %35

78:                                               ; preds = %75
  %79 = load ptr, ptr %6, align 8
  invoke void @_Z8outputlnRSo(ptr noundef nonnull align 8 dereferenceable(8) %79)
          to label %80 unwind label %35

80:                                               ; preds = %78
  call void @_ZNSt7__cxx1119basic_ostringstreamIcSt11char_traitsIcESaIcEED1Ev(ptr noundef nonnull align 8 dereferenceable(112) %9) #3
  ret void

81:                                               ; preds = %39, %35
  call void @_ZNSt7__cxx1119basic_ostringstreamIcSt11char_traitsIcESaIcEED1Ev(ptr noundef nonnull align 8 dereferenceable(112) %9) #3
  br label %82

82:                                               ; preds = %81
  %83 = load ptr, ptr %10, align 8
  %84 = load i32, ptr %11, align 4
  %85 = insertvalue { ptr, i32 } poison, ptr %83, 0
  %86 = insertvalue { ptr, i32 } %85, i32 %84, 1
  resume { ptr, i32 } %86
}