; Function Attrs: mustprogress uwtable
define dso_local void @_ZNK5Block6OutputERSoP7FactMgri(ptr noundef nonnull align 8 dereferenceable(192) %0, ptr noundef nonnull align 8 dereferenceable(8) %1, ptr noundef %2, i32 noundef %3) unnamed_addr #3 align 2 personality ptr @__gxx_personality_v0 {
  %5 = alloca %"class.std::__cxx11::basic_ostringstream", align 8
  %6 = alloca %"class.std::__cxx11::basic_string", align 8
  tail call void @_Z10output_tabRSoi(ptr noundef nonnull align 8 dereferenceable(8) %1, i32 noundef %3)
  %7 = tail call noundef nonnull align 8 dereferenceable(8) ptr @_ZStlsISt11char_traitsIcEERSt13basic_ostreamIcT_ES5_PKc(ptr noundef nonnull align 8 dereferenceable(8) %1, ptr noundef nonnull @.str.3)
  call void @_ZNSt7__cxx1119basic_ostringstreamIcSt11char_traitsIcESaIcEEC1Ev(ptr noundef nonnull align 8 dereferenceable(112) %5)
  %8 = invoke noundef nonnull align 8 dereferenceable(8) ptr @_ZStlsISt11char_traitsIcEERSt13basic_ostreamIcT_ES5_PKc(ptr noundef nonnull align 8 dereferenceable(8) %5, ptr noundef nonnull @.str.4)
          to label %9 unwind label %.loopexit.split-lp

9:                                                ; preds = %4
  %10 = getelementptr inbounds i8, ptr %0, i64 12
  %11 = load i32, ptr %10, align 4
  %12 = invoke noundef nonnull align 8 dereferenceable(8) ptr @_ZNSolsEi(ptr noundef nonnull align 8 dereferenceable(8) %8, i32 noundef %11)
          to label %13 unwind label %.loopexit.split-lp

13:                                               ; preds = %9
  invoke void @_ZNKSt7__cxx1119basic_ostringstreamIcSt11char_traitsIcESaIcEE3strEv(ptr dead_on_unwind nonnull writable sret(%"class.std::__cxx11::basic_string") align 8 %6, ptr noundef nonnull align 8 dereferenceable(112) %5)
          to label %14 unwind label %.loopexit.split-lp

14:                                               ; preds = %13
  invoke void @_Z19output_comment_lineRSoRKNSt7__cxx1112basic_stringIcSt11char_traitsIcESaIcEEE(ptr noundef nonnull align 8 dereferenceable(8) %1, ptr noundef nonnull align 8 dereferenceable(32) %6)
          to label %15 unwind label %22

15:                                               ; preds = %14
  call void @_ZNSt7__cxx1112basic_stringIcSt11char_traitsIcESaIcEED1Ev(ptr noundef nonnull align 8 dereferenceable(32) %6) #20
  %16 = invoke noundef zeroext i1 @_ZN9CGOptions13depth_protectEv()
          to label %17 unwind label %.loopexit.split-lp

17:                                               ; preds = %15
  br i1 %16, label %18, label %24

18:                                               ; preds = %17
  %19 = invoke noundef nonnull align 8 dereferenceable(8) ptr @_ZStlsISt11char_traitsIcEERSt13basic_ostreamIcT_ES5_PKc(ptr noundef nonnull align 8 dereferenceable(8) %1, ptr noundef nonnull @.str.5)
          to label %20 unwind label %.loopexit.split-lp

20:                                               ; preds = %18
  %21 = invoke noundef nonnull align 8 dereferenceable(8) ptr @_ZNSolsEPFRSoS_E(ptr noundef nonnull align 8 dereferenceable(8) %19, ptr noundef nonnull @_ZSt4endlIcSt11char_traitsIcEERSt13basic_ostreamIT_T0_ES6_)
          to label %24 unwind label %.loopexit.split-lp

.loopexit:                                        ; preds = %.lr.ph.i, %.noexc, %.noexc23
  %lpad.loopexit = landingpad { ptr, i32 }
          cleanup
  br label %62

.loopexit.split-lp:                               ; preds = %4, %9, %13, %15, %18, %20, %24, %28, %29, %_ZL19OutputStatementListRKSt6vectorIP9StatementSaIS1_EERSoP7FactMgri.exit, %53, %55, %57, %58, %60
  %lpad.loopexit.split-lp = landingpad { ptr, i32 }
          cleanup
  br label %62

22:                                               ; preds = %14
  %23 = landingpad { ptr, i32 }
          cleanup
  call void @_ZNSt7__cxx1112basic_stringIcSt11char_traitsIcESaIcEED1Ev(ptr noundef nonnull align 8 dereferenceable(32) %6) #20
  br label %62

24:                                               ; preds = %20, %17
  %25 = add nsw i32 %3, 1
  %26 = invoke noundef zeroext i1 @_ZN9CGOptions10math_notmpEv()
          to label %27 unwind label %.loopexit.split-lp

27:                                               ; preds = %24
  br i1 %26, label %28, label %29

28:                                               ; preds = %27
  invoke void @_ZNK5Block21OutputTmpVariableListERSoi(ptr noundef nonnull align 8 dereferenceable(192) %0, ptr noundef nonnull align 8 dereferenceable(8) %1, i32 noundef %25)
          to label %29 unwind label %.loopexit.split-lp

29:                                               ; preds = %28, %27
  %30 = getelementptr inbounds i8, ptr %0, i64 80
  invoke void @_Z18OutputVariableListRKSt6vectorIP8VariableSaIS1_EERSoi(ptr noundef nonnull align 8 dereferenceable(24) %30, ptr noundef nonnull align 8 dereferenceable(8) %1, i32 noundef %25)
          to label %31 unwind label %.loopexit.split-lp

31:                                               ; preds = %29
  %32 = getelementptr inbounds i8, ptr %0, i64 32
  %33 = getelementptr inbounds i8, ptr %0, i64 40
  %34 = load ptr, ptr %33, align 8
  %35 = load ptr, ptr %32, align 8
  %.not.i = icmp eq ptr %34, %35
  br i1 %.not.i, label %_ZL19OutputStatementListRKSt6vectorIP9StatementSaIS1_EERSoP7FactMgri.exit, label %.lr.ph.i

.lr.ph.i:                                         ; preds = %31, %.noexc24
  %36 = phi ptr [ %45, %.noexc24 ], [ %35, %31 ]
  %.016.i = phi i64 [ %43, %.noexc24 ], [ 0, %31 ]
  %37 = getelementptr inbounds ptr, ptr %36, i64 %.016.i
  %38 = load ptr, ptr %37, align 8
  %39 = invoke noundef i32 @_ZNK9Statement10pre_outputERSoP7FactMgri(ptr noundef nonnull align 8 dereferenceable(32) %38, ptr noundef nonnull align 8 dereferenceable(8) %1, ptr noundef %2, i32 noundef %25)
          to label %.noexc unwind label %.loopexit

.noexc:                                           ; preds = %.lr.ph.i
  %40 = load ptr, ptr %38, align 8
  %41 = getelementptr inbounds i8, ptr %40, i64 72
  %42 = load ptr, ptr %41, align 8
  invoke void %42(ptr noundef nonnull align 8 dereferenceable(32) %38, ptr noundef nonnull align 8 dereferenceable(8) %1, ptr noundef %2, i32 noundef %25)
          to label %.noexc23 unwind label %.loopexit

.noexc23:                                         ; preds = %.noexc
  invoke void @_ZNK9Statement11post_outputERSoP7FactMgri(ptr noundef nonnull align 8 dereferenceable(32) %38, ptr noundef nonnull align 8 dereferenceable(8) %1, ptr noundef %2, i32 noundef %25)
          to label %.noexc24 unwind label %.loopexit

.noexc24:                                         ; preds = %.noexc23
  %43 = add nuw i64 %.016.i, 1
  %44 = load ptr, ptr %33, align 8
  %45 = load ptr, ptr %32, align 8
  %46 = ptrtoint ptr %44 to i64
  %47 = ptrtoint ptr %45 to i64
  %48 = sub i64 %46, %47
  %49 = ashr exact i64 %48, 3
  %50 = icmp ult i64 %43, %49
  br i1 %50, label %.lr.ph.i, label %_ZL19OutputStatementListRKSt6vectorIP9StatementSaIS1_EERSoP7FactMgri.exit, !llvm.loop !38

_ZL19OutputStatementListRKSt6vectorIP9StatementSaIS1_EERSoP7FactMgri.exit: ; preds = %.noexc24, %31
  %51 = invoke noundef zeroext i1 @_ZN9CGOptions13depth_protectEv()
          to label %52 unwind label %.loopexit.split-lp

52:                                               ; preds = %_ZL19OutputStatementListRKSt6vectorIP9StatementSaIS1_EERSoP7FactMgri.exit
  br i1 %51, label %53, label %57

53:                                               ; preds = %52
  %54 = invoke noundef nonnull align 8 dereferenceable(8) ptr @_ZStlsISt11char_traitsIcEERSt13basic_ostreamIcT_ES5_PKc(ptr noundef nonnull align 8 dereferenceable(8) %1, ptr noundef nonnull @.str.6)
          to label %55 unwind label %.loopexit.split-lp

55:                                               ; preds = %53
  %56 = invoke noundef nonnull align 8 dereferenceable(8) ptr @_ZNSolsEPFRSoS_E(ptr noundef nonnull align 8 dereferenceable(8) %54, ptr noundef nonnull @_ZSt4endlIcSt11char_traitsIcEERSt13basic_ostreamIT_T0_ES6_)
          to label %57 unwind label %.loopexit.split-lp

57:                                               ; preds = %55, %52
  invoke void @_Z10output_tabRSoi(ptr noundef nonnull align 8 dereferenceable(8) %1, i32 noundef %3)
          to label %58 unwind label %.loopexit.split-lp

58:                                               ; preds = %57
  %59 = invoke noundef nonnull align 8 dereferenceable(8) ptr @_ZStlsISt11char_traitsIcEERSt13basic_ostreamIcT_ES5_PKc(ptr noundef nonnull align 8 dereferenceable(8) %1, ptr noundef nonnull @.str.7)
          to label %60 unwind label %.loopexit.split-lp

60:                                               ; preds = %58
  invoke void @_Z8outputlnRSo(ptr noundef nonnull align 8 dereferenceable(8) %1)
          to label %61 unwind label %.loopexit.split-lp

61:                                               ; preds = %60
  call void @_ZNSt7__cxx1119basic_ostringstreamIcSt11char_traitsIcESaIcEED1Ev(ptr noundef nonnull align 8 dereferenceable(112) %5) #20
  ret void

62:                                               ; preds = %.loopexit, %.loopexit.split-lp, %22
  %.pn = phi { ptr, i32 } [ %23, %22 ], [ %lpad.loopexit, %.loopexit ], [ %lpad.loopexit.split-lp, %.loopexit.split-lp ]
  call void @_ZNSt7__cxx1119basic_ostringstreamIcSt11char_traitsIcESaIcEED1Ev(ptr noundef nonnull align 8 dereferenceable(112) %5) #20
  resume { ptr, i32 } %.pn
}